ccopy_reg
_reconstructor
p0
(cgoogle.oauth2.credentials
Credentials
p1
c__builtin__
object
p2
Ntp3
Rp4
(dp5
S'_quota_project_id'
p6
NsS'_token_uri'
p7
Vhttps://oauth2.googleapis.com/token
p8
sS'_client_secret'
p9
VBFwftdLG1-UvKczRMBSqoryh
p10
sS'_id_token'
p11
NsS'token'
p12
Vya29.a0AfH6SMB4_rID8KONXLJ2IW2hCbyzdtESRQZtln4P1pKi71lWH36rCuJHf3cLEGFbdbuntVRYRqfumItobMTZm3vbevbbHTyzsKuJ34XzQQMIjcEVQlBihXbXFyvBx2iCgUoGXQjNwGNfzINzgWRcAbBQac7508czKyM
p13
sS'_refresh_token'
p14
V1//03798AeRG7snbCgYIARAAGAMSNwF-L9IrAaa1a5XmgrAXjvSB5galb171ZHNjngBALmdPA7DkxSGBu1g7lJ9OqXBZNOJwsh99HVE
p15
sS'_scopes'
p16
(lp17
S'https://www.googleapis.com/auth/spreadsheets'
p18
asS'_client_id'
p19
V891819728822-erm7537ath5tbu2kdb22bei2q8f62sdo.apps.googleusercontent.com
p20
sS'expiry'
p21
cdatetime
datetime
p22
(S'\x07\xe4\x07\x1b\r\x05"\x0b\xcfp'
p23
tp24
Rp25
sb.